target datalayout = "e-m:e-p270:32:32-p271:32:32-p272:64:64-i64:64-i128:128-f80:128-n8:16:32:64-S128"
target triple = "x86_64-pc-linux-gnu"

; Function Attrs: inlinehint nounwind uwtable
define internal void @avg_pixels2_xy2_8_c(ptr noundef %0, ptr noundef %1, i64 noundef %2, i32 noundef %3) #2 {
  %5 = alloca ptr, align 8
  %6 = alloca ptr, align 8
  %7 = alloca i64, align 8
  %8 = alloca i32, align 4
  %9 = alloca i32, align 4
  %10 = alloca i32, align 4
  %11 = alloca i32, align 4
  %12 = alloca i32, align 4
  %13 = alloca i32, align 4
  store ptr %0, ptr %5, align 8, !tbaa !12
  store ptr %1, ptr %6, align 8, !tbaa !12
  store i64 %2, ptr %7, align 8, !tbaa !14
  store i32 %3, ptr %8, align 4, !tbaa !9
  call void @llvm.lifetime.start.p0(i64 4, ptr %9) #4
  call void @llvm.lifetime.start.p0(i64 4, ptr %10) #4
  call void @llvm.lifetime.start.p0(i64 4, ptr %11) #4
  call void @llvm.lifetime.start.p0(i64 4, ptr %12) #4
  %14 = load ptr, ptr %6, align 8, !tbaa !12
  %15 = getelementptr inbounds i8, ptr %14, i64 0
  %16 = load i8, ptr %15, align 1, !tbaa !16
  %17 = zext i8 %16 to i32
  store i32 %17, ptr %12, align 4, !tbaa !9
  call void @llvm.lifetime.start.p0(i64 4, ptr %13) #4
  %18 = load ptr, ptr %6, align 8, !tbaa !12
  %19 = getelementptr inbounds i8, ptr %18, i64 1
  %20 = load i8, ptr %19, align 1, !tbaa !16
  %21 = zext i8 %20 to i32
  %22 = add nsw i32 %21, 2
  store i32 %22, ptr %13, align 4, !tbaa !9
  %23 = load i32, ptr %13, align 4, !tbaa !9
  %24 = load i32, ptr %12, align 4, !tbaa !9
  %25 = add nsw i32 %24, %23
  store i32 %25, ptr %12, align 4, !tbaa !9
  %26 = load ptr, ptr %6, align 8, !tbaa !12
  %27 = getelementptr inbounds i8, ptr %26, i64 2
  %28 = load i8, ptr %27, align 1, !tbaa !16
  %29 = zext i8 %28 to i32
  %30 = load i32, ptr %13, align 4, !tbaa !9
  %31 = add nsw i32 %30, %29
  store i32 %31, ptr %13, align 4, !tbaa !9
  %32 = load i64, ptr %7, align 8, !tbaa !14
  %33 = load ptr, ptr %6, align 8, !tbaa !12
  %34 = getelementptr inbounds i8, ptr %33, i64 %32
  store ptr %34, ptr %6, align 8, !tbaa !12
  store i32 0, ptr %9, align 4, !tbaa !9
  br label %35

35:                                               ; preds = %115, %4
  %36 = load i32, ptr %9, align 4, !tbaa !9
  %37 = load i32, ptr %8, align 4, !tbaa !9
  %38 = icmp slt i32 %36, %37
  br i1 %38, label %39, label %118

39:                                               ; preds = %35
  %40 = load ptr, ptr %6, align 8, !tbaa !12
  %41 = getelementptr inbounds i8, ptr %40, i64 0
  %42 = load i8, ptr %41, align 1, !tbaa !16
  %43 = zext i8 %42 to i32
  store i32 %43, ptr %10, align 4, !tbaa !9
  %44 = load ptr, ptr %6, align 8, !tbaa !12
  %45 = getelementptr inbounds i8, ptr %44, i64 1
  %46 = load i8, ptr %45, align 1, !tbaa !16
  %47 = zext i8 %46 to i32
  store i32 %47, ptr %11, align 4, !tbaa !9
  %48 = load i32, ptr %11, align 4, !tbaa !9
  %49 = load i32, ptr %10, align 4, !tbaa !9
  %50 = add nsw i32 %49, %48
  store i32 %50, ptr %10, align 4, !tbaa !9
  %51 = load ptr, ptr %6, align 8, !tbaa !12
  %52 = getelementptr inbounds i8, ptr %51, i64 2
  %53 = load i8, ptr %52, align 1, !tbaa !16
  %54 = zext i8 %53 to i32
  %55 = load i32, ptr %11, align 4, !tbaa !9
  %56 = add nsw i32 %55, %54
  store i32 %56, ptr %11, align 4, !tbaa !9
  %57 = load i32, ptr %10, align 4, !tbaa !9
  %58 = load i32, ptr %12, align 4, !tbaa !9
  %59 = add nsw i32 %57, %58
  %60 = ashr i32 %59, 2
  %61 = trunc i32 %60 to i8
  %62 = load ptr, ptr %5, align 8, !tbaa !12
  %63 = getelementptr inbounds i8, ptr %62, i64 0
  store i8 %61, ptr %63, align 1, !tbaa !16
  %64 = load i32, ptr %11, align 4, !tbaa !9
  %65 = load i32, ptr %13, align 4, !tbaa !9
  %66 = add nsw i32 %64, %65
  %67 = ashr i32 %66, 2
  %68 = trunc i32 %67 to i8
  %69 = load ptr, ptr %5, align 8, !tbaa !12
  %70 = getelementptr inbounds i8, ptr %69, i64 1
  store i8 %68, ptr %70, align 1, !tbaa !16
  %71 = load i64, ptr %7, align 8, !tbaa !14
  %72 = load ptr, ptr %6, align 8, !tbaa !12
  %73 = getelementptr inbounds i8, ptr %72, i64 %71
  store ptr %73, ptr %6, align 8, !tbaa !12
  %74 = load i64, ptr %7, align 8, !tbaa !14
  %75 = load ptr, ptr %5, align 8, !tbaa !12
  %76 = getelementptr inbounds i8, ptr %75, i64 %74
  store ptr %76, ptr %5, align 8, !tbaa !12
  %77 = load ptr, ptr %6, align 8, !tbaa !12
  %78 = getelementptr inbounds i8, ptr %77, i64 0
  %79 = load i8, ptr %78, align 1, !tbaa !16
  %80 = zext i8 %79 to i32
  store i32 %80, ptr %12, align 4, !tbaa !9
  %81 = load ptr, ptr %6, align 8, !tbaa !12
  %82 = getelementptr inbounds i8, ptr %81, i64 1
  %83 = load i8, ptr %82, align 1, !tbaa !16
  %84 = zext i8 %83 to i32
  %85 = add nsw i32 %84, 2
  store i32 %85, ptr %13, align 4, !tbaa !9
  %86 = load i32, ptr %13, align 4, !tbaa !9
  %87 = load i32, ptr %12, align 4, !tbaa !9
  %88 = add nsw i32 %87, %86
  store i32 %88, ptr %12, align 4, !tbaa !9
  %89 = load ptr, ptr %6, align 8, !tbaa !12
  %90 = getelementptr inbounds i8, ptr %89, i64 2
  %91 = load i8, ptr %90, align 1, !tbaa !16
  %92 = zext i8 %91 to i32
  %93 = load i32, ptr %13, align 4, !tbaa !9
  %94 = add nsw i32 %93, %92
  store i32 %94, ptr %13, align 4, !tbaa !9
  %95 = load i32, ptr %10, align 4, !tbaa !9
  %96 = load i32, ptr %12, align 4, !tbaa !9
  %97 = add nsw i32 %95, %96
  %98 = ashr i32 %97, 2
  %99 = trunc i32 %98 to i8
  %100 = load ptr, ptr %5, align 8, !tbaa !12
  %101 = getelementptr inbounds i8, ptr %100, i64 0
  store i8 %99, ptr %101, align 1, !tbaa !16
  %102 = load i32, ptr %11, align 4, !tbaa !9
  %103 = load i32, ptr %13, align 4, !tbaa !9
  %104 = add nsw i32 %102, %103
  %105 = ashr i32 %104, 2
  %106 = trunc i32 %105 to i8
  %107 = load ptr, ptr %5, align 8, !tbaa !12
  %108 = getelementptr inbounds i8, ptr %107, i64 1
  store i8 %106, ptr %108, align 1, !tbaa !16
  %109 = load i64, ptr %7, align 8, !tbaa !14
  %110 = load ptr, ptr %6, align 8, !tbaa !12
  %111 = getelementptr inbounds i8, ptr %110, i64 %109
  store ptr %111, ptr %6, align 8, !tbaa !12
  %112 = load i64, ptr %7, align 8, !tbaa !14
  %113 = load ptr, ptr %5, align 8, !tbaa !12
  %114 = getelementptr inbounds i8, ptr %113, i64 %112
  store ptr %114, ptr %5, align 8, !tbaa !12
  br label %115

115:                                              ; preds = %39
  %116 = load i32, ptr %9, align 4, !tbaa !9
  %117 = add nsw i32 %116, 2
  store i32 %117, ptr %9, align 4, !tbaa !9
  br label %35, !llvm.loop !35

118:                                              ; preds = %35
  call void @llvm.lifetime.end.p0(i64 4, ptr %13) #4
  call void @llvm.lifetime.end.p0(i64 4, ptr %12) #4
  call void @llvm.lifetime.end.p0(i64 4, ptr %11) #4
  call void @llvm.lifetime.end.p0(i64 4, ptr %10) #4
  call void @llvm.lifetime.end.p0(i64 4, ptr %9) #4
  ret void
}